target datalayout = "e-m:e-p270:32:32-p271:32:32-p272:64:64-i64:64-i128:128-f80:128-n8:16:32:64-S128"
target triple = "x86_64-pc-linux-gnu"

%struct.Dch_Cla_t_ = type { ptr, ptr, ptr, i32, i32, i32, ptr, ptr, ptr, ptr, ptr, ptr, ptr, ptr }
%struct.Aig_Man_t_ = type { ptr, ptr, ptr, ptr, ptr, ptr, ptr, %struct.Aig_Obj_t_, i32, i32, i32, i32, i32, i32, [7 x i32], i32, ptr, i32, ptr, i32, ptr, i32, i32, i32, ptr, i32, i32, i32, i32, i32, ptr, ptr, i32, ptr, ptr, i32, ptr, ptr, i32, i32, i32, ptr, ptr, ptr, ptr, ptr, ptr, ptr, ptr, ptr, ptr, ptr, ptr, ptr, ptr, i32, ptr, ptr, ptr, ptr, i32, i64, i64, i64, ptr, ptr }
%struct.Aig_Obj_t_ = type { %union.anon, ptr, ptr, i64, i32, i32, %union.anon.0 }
%union.anon = type { ptr }
%union.anon.0 = type { ptr }
%struct.Vec_Ptr_t_ = type { i32, i32, ptr }

@.str = private unnamed_addr constant [3 x i8] c"{ \00", align 1
@.str.1 = private unnamed_addr constant [11 x i8] c"%d(%d,%d) \00", align 1
@.str.2 = private unnamed_addr constant [3 x i8] c"}\0A\00", align 1
@.str.3 = private unnamed_addr constant [60 x i8] c"Equivalence classes: Const1 = %5d. Class = %5d. Lit = %5d.\0A\00", align 1
@.str.4 = private unnamed_addr constant [13 x i8] c"Constants { \00", align 1
@.str.5 = private unnamed_addr constant [13 x i8] c"%3d (%3d) : \00", align 1
@.str.6 = private unnamed_addr constant [2 x i8] c"\0A\00", align 1

; Function Attrs: inlinehint nounwind uwtable
define internal ptr @Aig_ManConst1(ptr noundef %0) #5 {
  %2 = alloca ptr, align 8
  store ptr %0, ptr %2, align 8, !tbaa !3
  %3 = load ptr, ptr %2, align 8, !tbaa !3
  %4 = getelementptr inbounds nuw %struct.Aig_Man_t_, ptr %3, i32 0, i32 6
  %5 = load ptr, ptr %4, align 8, !tbaa !75
  ret ptr %5
}

; Function Attrs: inlinehint nounwind uwtable
define internal ptr @Aig_ObjRepr(ptr noundef %0, ptr noundef %1) #5 {
  %3 = alloca ptr, align 8
  %4 = alloca ptr, align 8
  store ptr %0, ptr %3, align 8, !tbaa !3
  store ptr %1, ptr %4, align 8, !tbaa !44
  %5 = load ptr, ptr %3, align 8, !tbaa !3
  %6 = getelementptr inbounds nuw %struct.Aig_Man_t_, ptr %5, i32 0, i32 31
  %7 = load ptr, ptr %6, align 8, !tbaa !66
  %8 = icmp ne ptr %7, null
  br i1 %8, label %9, label %19

9:                                                ; preds = %2
  %10 = load ptr, ptr %3, align 8, !tbaa !3
  %11 = getelementptr inbounds nuw %struct.Aig_Man_t_, ptr %10, i32 0, i32 31
  %12 = load ptr, ptr %11, align 8, !tbaa !66
  %13 = load ptr, ptr %4, align 8, !tbaa !44
  %14 = getelementptr inbounds nuw %struct.Aig_Obj_t_, ptr %13, i32 0, i32 5
  %15 = load i32, ptr %14, align 4, !tbaa !46
  %16 = sext i32 %15 to i64
  %17 = getelementptr inbounds ptr, ptr %12, i64 %16
  %18 = load ptr, ptr %17, align 8, !tbaa !44
  br label %20

19:                                               ; preds = %2
  br label %20

20:                                               ; preds = %19, %9
  %21 = phi ptr [ %18, %9 ], [ null, %19 ]
  ret ptr %21
}

; Function Attrs: nounwind uwtable
define void @Dch_ClassesPrintOne(ptr noundef %0, ptr noundef %1) #0 {
  %3 = alloca ptr, align 8
  %4 = alloca ptr, align 8
  %5 = alloca ptr, align 8
  %6 = alloca i32, align 4
  store ptr %0, ptr %3, align 8, !tbaa !8
  store ptr %1, ptr %4, align 8, !tbaa !44
  call void @llvm.lifetime.start.p0(i64 8, ptr %5) #11
  call void @llvm.lifetime.start.p0(i64 4, ptr %6) #11
  call void (i32, ptr, ...) @Abc_Print(i32 noundef 1, ptr noundef @.str)
  store i32 0, ptr %6, align 4, !tbaa !31
  br label %7

7:                                                ; preds = %51, %2
  %8 = load i32, ptr %6, align 4, !tbaa !31
  %9 = load ptr, ptr %3, align 8, !tbaa !8
  %10 = getelementptr inbounds nuw %struct.Dch_Cla_t_, ptr %9, i32 0, i32 2
  %11 = load ptr, ptr %10, align 8, !tbaa !18
  %12 = load ptr, ptr %4, align 8, !tbaa !44
  %13 = getelementptr inbounds nuw %struct.Aig_Obj_t_, ptr %12, i32 0, i32 5
  %14 = load i32, ptr %13, align 4, !tbaa !46
  %15 = sext i32 %14 to i64
  %16 = getelementptr inbounds i32, ptr %11, i64 %15
  %17 = load i32, ptr %16, align 4, !tbaa !31
  %18 = icmp slt i32 %8, %17
  br i1 %18, label %19, label %54

19:                                               ; preds = %7
  %20 = load ptr, ptr %3, align 8, !tbaa !8
  %21 = getelementptr inbounds nuw %struct.Dch_Cla_t_, ptr %20, i32 0, i32 1
  %22 = load ptr, ptr %21, align 8, !tbaa !17
  %23 = load ptr, ptr %4, align 8, !tbaa !44
  %24 = getelementptr inbounds nuw %struct.Aig_Obj_t_, ptr %23, i32 0, i32 5
  %25 = load i32, ptr %24, align 4, !tbaa !46
  %26 = sext i32 %25 to i64
  %27 = getelementptr inbounds ptr, ptr %22, i64 %26
  %28 = load ptr, ptr %27, align 8, !tbaa !47
  %29 = load i32, ptr %6, align 4, !tbaa !31
  %30 = sext i32 %29 to i64
  %31 = getelementptr inbounds ptr, ptr %28, i64 %30
  %32 = load ptr, ptr %31, align 8, !tbaa !44
  store ptr %32, ptr %5, align 8, !tbaa !44
  %33 = icmp eq ptr %32, null
  br i1 %33, label %34, label %35

34:                                               ; preds = %19
  br label %50

35:                                               ; preds = %19
  %36 = load ptr, ptr %5, align 8, !tbaa !44
  %37 = getelementptr inbounds nuw %struct.Aig_Obj_t_, ptr %36, i32 0, i32 5
  %38 = load i32, ptr %37, align 4, !tbaa !46
  %39 = load ptr, ptr %5, align 8, !tbaa !44
  %40 = getelementptr inbounds nuw %struct.Aig_Obj_t_, ptr %39, i32 0, i32 3
  %41 = load i64, ptr %40, align 8
  %42 = lshr i64 %41, 32
  %43 = and i64 %42, 16777215
  %44 = trunc i64 %43 to i32
  %45 = load ptr, ptr %3, align 8, !tbaa !8
  %46 = getelementptr inbounds nuw %struct.Dch_Cla_t_, ptr %45, i32 0, i32 0
  %47 = load ptr, ptr %46, align 8, !tbaa !10
  %48 = load ptr, ptr %5, align 8, !tbaa !44
  %49 = call i32 @Aig_SupportSize(ptr noundef %47, ptr noundef %48)
  call void (i32, ptr, ...) @Abc_Print(i32 noundef 1, ptr noundef @.str.1, i32 noundef %38, i32 noundef %44, i32 noundef %49)
  br label %50

50:                                               ; preds = %35, %34
  br label %51

51:                                               ; preds = %50
  %52 = load i32, ptr %6, align 4, !tbaa !31
  %53 = add nsw i32 %52, 1
  store i32 %53, ptr %6, align 4, !tbaa !31
  br label %7, !llvm.loop !52

54:                                               ; preds = %7
  call void (i32, ptr, ...) @Abc_Print(i32 noundef 1, ptr noundef @.str.2)
  call void @llvm.lifetime.end.p0(i64 4, ptr %6) #11
  call void @llvm.lifetime.end.p0(i64 8, ptr %5) #11
  ret void
}

; Function Attrs: inlinehint nounwind uwtable
define internal i32 @Aig_ManObjNumMax(ptr noundef %0) #5 {
  %2 = alloca ptr, align 8
  store ptr %0, ptr %2, align 8, !tbaa !3
  %3 = load ptr, ptr %2, align 8, !tbaa !3
  %4 = getelementptr inbounds nuw %struct.Aig_Man_t_, ptr %3, i32 0, i32 4
  %5 = load ptr, ptr %4, align 8, !tbaa !21
  %6 = call i32 @Vec_PtrSize(ptr noundef %5)
  ret i32 %6
}

; Function Attrs: inlinehint nounwind uwtable
define internal i32 @Dch_ObjIsConst1Cand(ptr noundef %0, ptr noundef %1) #5 {
  %3 = alloca ptr, align 8
  %4 = alloca ptr, align 8
  store ptr %0, ptr %3, align 8, !tbaa !3
  store ptr %1, ptr %4, align 8, !tbaa !44
  %5 = load ptr, ptr %3, align 8, !tbaa !3
  %6 = load ptr, ptr %4, align 8, !tbaa !44
  %7 = call ptr @Aig_ObjRepr(ptr noundef %5, ptr noundef %6)
  %8 = load ptr, ptr %3, align 8, !tbaa !3
  %9 = call ptr @Aig_ManConst1(ptr noundef %8)
  %10 = icmp eq ptr %7, %9
  %11 = zext i1 %10 to i32
  ret i32 %11
}

; Function Attrs: inlinehint nounwind uwtable
define internal ptr @Vec_PtrEntry(ptr noundef %0, i32 noundef %1) #5 {
  %3 = alloca ptr, align 8
  %4 = alloca i32, align 4
  store ptr %0, ptr %3, align 8, !tbaa !32
  store i32 %1, ptr %4, align 4, !tbaa !31
  %5 = load ptr, ptr %3, align 8, !tbaa !32
  %6 = getelementptr inbounds nuw %struct.Vec_Ptr_t_, ptr %5, i32 0, i32 2
  %7 = load ptr, ptr %6, align 8, !tbaa !36
  %8 = load i32, ptr %4, align 4, !tbaa !31
  %9 = sext i32 %8 to i64
  %10 = getelementptr inbounds ptr, ptr %7, i64 %9
  %11 = load ptr, ptr %10, align 8, !tbaa !37
  ret ptr %11
}

; Function Attrs: inlinehint nounwind uwtable
define internal i32 @Vec_PtrSize(ptr noundef %0) #5 {
  %2 = alloca ptr, align 8
  store ptr %0, ptr %2, align 8, !tbaa !32
  %3 = load ptr, ptr %2, align 8, !tbaa !32
  %4 = getelementptr inbounds nuw %struct.Vec_Ptr_t_, ptr %3, i32 0, i32 1
  %5 = load i32, ptr %4, align 4, !tbaa !33
  ret i32 %5
}

; Function Attrs: nounwind uwtable
define void @Dch_ClassesPrint(ptr noundef %0, i32 noundef %1) #0 {
  %3 = alloca ptr, align 8
  %4 = alloca i32, align 4
  %5 = alloca ptr, align 8
  %6 = alloca ptr, align 8
  %7 = alloca i32, align 4
  %8 = alloca i32, align 4
  store ptr %0, ptr %3, align 8, !tbaa !8
  store i32 %1, ptr %4, align 4, !tbaa !31
  call void @llvm.lifetime.start.p0(i64 8, ptr %5) #11
  call void @llvm.lifetime.start.p0(i64 8, ptr %6) #11
  call void @llvm.lifetime.start.p0(i64 4, ptr %7) #11
  %9 = load ptr, ptr %3, align 8, !tbaa !8
  %10 = getelementptr inbounds nuw %struct.Dch_Cla_t_, ptr %9, i32 0, i32 4
  %11 = load i32, ptr %10, align 4, !tbaa !56
  %12 = load ptr, ptr %3, align 8, !tbaa !8
  %13 = getelementptr inbounds nuw %struct.Dch_Cla_t_, ptr %12, i32 0, i32 3
  %14 = load i32, ptr %13, align 8, !tbaa !57
  %15 = load ptr, ptr %3, align 8, !tbaa !8
  %16 = getelementptr inbounds nuw %struct.Dch_Cla_t_, ptr %15, i32 0, i32 5
  %17 = load i32, ptr %16, align 8, !tbaa !43
  call void (i32, ptr, ...) @Abc_Print(i32 noundef 1, ptr noundef @.str.3, i32 noundef %11, i32 noundef %14, i32 noundef %17)
  %18 = load i32, ptr %4, align 4, !tbaa !31
  %19 = icmp ne i32 %18, 0
  br i1 %19, label %21, label %20

20:                                               ; preds = %2
  store i32 1, ptr %8, align 4
  br label %108

21:                                               ; preds = %2
  call void (i32, ptr, ...) @Abc_Print(i32 noundef 1, ptr noundef @.str.4)
  store i32 0, ptr %7, align 4, !tbaa !31
  br label %22

22:                                               ; preds = %69, %21
  %23 = load i32, ptr %7, align 4, !tbaa !31
  %24 = load ptr, ptr %3, align 8, !tbaa !8
  %25 = getelementptr inbounds nuw %struct.Dch_Cla_t_, ptr %24, i32 0, i32 0
  %26 = load ptr, ptr %25, align 8, !tbaa !10
  %27 = getelementptr inbounds nuw %struct.Aig_Man_t_, ptr %26, i32 0, i32 4
  %28 = load ptr, ptr %27, align 8, !tbaa !21
  %29 = call i32 @Vec_PtrSize(ptr noundef %28)
  %30 = icmp slt i32 %23, %29
  br i1 %30, label %31, label %39

31:                                               ; preds = %22
  %32 = load ptr, ptr %3, align 8, !tbaa !8
  %33 = getelementptr inbounds nuw %struct.Dch_Cla_t_, ptr %32, i32 0, i32 0
  %34 = load ptr, ptr %33, align 8, !tbaa !10
  %35 = getelementptr inbounds nuw %struct.Aig_Man_t_, ptr %34, i32 0, i32 4
  %36 = load ptr, ptr %35, align 8, !tbaa !21
  %37 = load i32, ptr %7, align 4, !tbaa !31
  %38 = call ptr @Vec_PtrEntry(ptr noundef %36, i32 noundef %37)
  store ptr %38, ptr %6, align 8, !tbaa !44
  br label %39

39:                                               ; preds = %31, %22
  %40 = phi i1 [ false, %22 ], [ true, %31 ]
  br i1 %40, label %41, label %72

41:                                               ; preds = %39
  %42 = load ptr, ptr %6, align 8, !tbaa !44
  %43 = icmp eq ptr %42, null
  br i1 %43, label %44, label %45

44:                                               ; preds = %41
  br label %68

45:                                               ; preds = %41
  %46 = load ptr, ptr %3, align 8, !tbaa !8
  %47 = getelementptr inbounds nuw %struct.Dch_Cla_t_, ptr %46, i32 0, i32 0
  %48 = load ptr, ptr %47, align 8, !tbaa !10
  %49 = load ptr, ptr %6, align 8, !tbaa !44
  %50 = call i32 @Dch_ObjIsConst1Cand(ptr noundef %48, ptr noundef %49)
  %51 = icmp ne i32 %50, 0
  br i1 %51, label %52, label %67

52:                                               ; preds = %45
  %53 = load ptr, ptr %6, align 8, !tbaa !44
  %54 = getelementptr inbounds nuw %struct.Aig_Obj_t_, ptr %53, i32 0, i32 5
  %55 = load i32, ptr %54, align 4, !tbaa !46
  %56 = load ptr, ptr %6, align 8, !tbaa !44
  %57 = getelementptr inbounds nuw %struct.Aig_Obj_t_, ptr %56, i32 0, i32 3
  %58 = load i64, ptr %57, align 8
  %59 = lshr i64 %58, 32
  %60 = and i64 %59, 16777215
  %61 = trunc i64 %60 to i32
  %62 = load ptr, ptr %3, align 8, !tbaa !8
  %63 = getelementptr inbounds nuw %struct.Dch_Cla_t_, ptr %62, i32 0, i32 0
  %64 = load ptr, ptr %63, align 8, !tbaa !10
  %65 = load ptr, ptr %6, align 8, !tbaa !44
  %66 = call i32 @Aig_SupportSize(ptr noundef %64, ptr noundef %65)
  call void (i32, ptr, ...) @Abc_Print(i32 noundef 1, ptr noundef @.str.1, i32 noundef %55, i32 noundef %61, i32 noundef %66)
  br label %67

67:                                               ; preds = %52, %45
  br label %68

68:                                               ; preds = %67, %44
  br label %69

69:                                               ; preds = %68
  %70 = load i32, ptr %7, align 4, !tbaa !31
  %71 = add nsw i32 %70, 1
  store i32 %71, ptr %7, align 4, !tbaa !31
  br label %22, !llvm.loop !58

72:                                               ; preds = %39
  call void (i32, ptr, ...) @Abc_Print(i32 noundef 1, ptr noundef @.str.2)
  store i32 0, ptr %7, align 4, !tbaa !31
  br label %73

73:                                               ; preds = %104, %72
  %74 = load i32, ptr %7, align 4, !tbaa !31
  %75 = load ptr, ptr %3, align 8, !tbaa !8
  %76 = getelementptr inbounds nuw %struct.Dch_Cla_t_, ptr %75, i32 0, i32 0
  %77 = load ptr, ptr %76, align 8, !tbaa !10
  %78 = call i32 @Aig_ManObjNumMax(ptr noundef %77)
  %79 = icmp slt i32 %74, %78
  br i1 %79, label %80, label %107

80:                                               ; preds = %73
  %81 = load ptr, ptr %3, align 8, !tbaa !8
  %82 = getelementptr inbounds nuw %struct.Dch_Cla_t_, ptr %81, i32 0, i32 1
  %83 = load ptr, ptr %82, align 8, !tbaa !17
  %84 = load i32, ptr %7, align 4, !tbaa !31
  %85 = sext i32 %84 to i64
  %86 = getelementptr inbounds ptr, ptr %83, i64 %85
  %87 = load ptr, ptr %86, align 8, !tbaa !47
  store ptr %87, ptr %5, align 8, !tbaa !47
  %88 = icmp eq ptr %87, null
  br i1 %88, label %89, label %90

89:                                               ; preds = %80
  br label %103

90:                                               ; preds = %80
  %91 = load i32, ptr %7, align 4, !tbaa !31
  %92 = load ptr, ptr %3, align 8, !tbaa !8
  %93 = getelementptr inbounds nuw %struct.Dch_Cla_t_, ptr %92, i32 0, i32 2
  %94 = load ptr, ptr %93, align 8, !tbaa !18
  %95 = load i32, ptr %7, align 4, !tbaa !31
  %96 = sext i32 %95 to i64
  %97 = getelementptr inbounds i32, ptr %94, i64 %96
  %98 = load i32, ptr %97, align 4, !tbaa !31
  call void (i32, ptr, ...) @Abc_Print(i32 noundef 1, ptr noundef @.str.5, i32 noundef %91, i32 noundef %98)
  %99 = load ptr, ptr %3, align 8, !tbaa !8
  %100 = load ptr, ptr %5, align 8, !tbaa !47
  %101 = getelementptr inbounds ptr, ptr %100, i64 0
  %102 = load ptr, ptr %101, align 8, !tbaa !44
  call void @Dch_ClassesPrintOne(ptr noundef %99, ptr noundef %102)
  br label %103

103:                                              ; preds = %90, %89
  br label %104

104:                                              ; preds = %103
  %105 = load i32, ptr %7, align 4, !tbaa !31
  %106 = add nsw i32 %105, 1
  store i32 %106, ptr %7, align 4, !tbaa !31
  br label %73, !llvm.loop !59

107:                                              ; preds = %73
  call void (i32, ptr, ...) @Abc_Print(i32 noundef 1, ptr noundef @.str.6)
  store i32 0, ptr %8, align 4
  br label %108

108:                                              ; preds = %107, %20
  call void @llvm.lifetime.end.p0(i64 4, ptr %7) #11
  call void @llvm.lifetime.end.p0(i64 8, ptr %6) #11
  call void @llvm.lifetime.end.p0(i64 8, ptr %5) #11
  %109 = load i32, ptr %8, align 4
  switch i32 %109, label %111 [
    i32 0, label %110
    i32 1, label %110
  ]

110:                                              ; preds = %108, %108
  ret void

111:                                              ; preds = %108
  unreachable
}