; Function Attrs: nounwind uwtable
define void @Dch_ClassesPrint(ptr noundef readonly captures(none) %0, i32 noundef %1) local_unnamed_addr #0 {
  %3 = getelementptr inbounds nuw i8, ptr %0, i64 28
  %4 = load i32, ptr %3, align 4, !tbaa !49
  %5 = getelementptr inbounds nuw i8, ptr %0, i64 24
  %6 = load i32, ptr %5, align 8, !tbaa !50
  %7 = getelementptr inbounds nuw i8, ptr %0, i64 32
  %8 = load i32, ptr %7, align 8, !tbaa !37
  tail call void (i32, ptr, ...) @Abc_Print(i32 poison, ptr noundef nonnull @.str.3, i32 noundef %4, i32 noundef %6, i32 noundef %8)
  %.not = icmp eq i32 %1, 0
  br i1 %.not, label %105, label %9

9:                                                ; preds = %2
  tail call void (i32, ptr, ...) @Abc_Print(i32 poison, ptr noundef nonnull @.str.4)
  %10 = load ptr, ptr %0, align 8, !tbaa !3
  %11 = getelementptr inbounds nuw i8, ptr %10, i64 32
  %12 = load ptr, ptr %11, align 8, !tbaa !14
  %13 = getelementptr i8, ptr %12, i64 4
  %.val31 = load i32, ptr %13, align 4, !tbaa !24
  %14 = icmp sgt i32 %.val31, 0
  br i1 %14, label %.lr.ph, label %.critedge

.lr.ph:                                           ; preds = %9, %40
  %15 = phi ptr [ %41, %40 ], [ %10, %9 ]
  %indvars.iv = phi i64 [ %indvars.iv.next, %40 ], [ 0, %9 ]
  %16 = phi ptr [ %43, %40 ], [ %12, %9 ]
  %17 = getelementptr i8, ptr %16, i64 8
  %.val29 = load ptr, ptr %17, align 8, !tbaa !29
  %18 = getelementptr inbounds nuw ptr, ptr %.val29, i64 %indvars.iv
  %19 = load ptr, ptr %18, align 8, !tbaa !51
  %20 = icmp eq ptr %19, null
  br i1 %20, label %40, label %21

21:                                               ; preds = %.lr.ph
  %22 = getelementptr i8, ptr %15, i64 256
  %.val.i = load ptr, ptr %22, align 8, !tbaa !52
  %.not.i.i = icmp eq ptr %.val.i, null
  br i1 %.not.i.i, label %Dch_ObjIsConst1Cand.exit, label %23

23:                                               ; preds = %21
  %24 = getelementptr inbounds nuw i8, ptr %19, i64 36
  %25 = load i32, ptr %24, align 4, !tbaa !38
  %26 = sext i32 %25 to i64
  %27 = getelementptr inbounds ptr, ptr %.val.i, i64 %26
  %28 = load ptr, ptr %27, align 8, !tbaa !41
  br label %Dch_ObjIsConst1Cand.exit

Dch_ObjIsConst1Cand.exit:                         ; preds = %21, %23
  %29 = phi ptr [ %28, %23 ], [ null, %21 ]
  %30 = getelementptr i8, ptr %15, i64 48
  %.val3.i = load ptr, ptr %30, align 8, !tbaa !53
  %.not30 = icmp eq ptr %29, %.val3.i
  br i1 %.not30, label %31, label %40

31:                                               ; preds = %Dch_ObjIsConst1Cand.exit
  %32 = getelementptr inbounds nuw i8, ptr %19, i64 36
  %33 = load i32, ptr %32, align 4, !tbaa !38
  %34 = getelementptr inbounds nuw i8, ptr %19, i64 24
  %35 = load i64, ptr %34, align 8
  %36 = lshr i64 %35, 32
  %37 = trunc nuw i64 %36 to i32
  %38 = and i32 %37, 16777215
  %39 = tail call i32 @Aig_SupportSize(ptr noundef nonnull %15, ptr noundef nonnull %19) #19
  tail call void (i32, ptr, ...) @Abc_Print(i32 poison, ptr noundef nonnull @.str.1, i32 noundef %33, i32 noundef %38, i32 noundef %39)
  %.pre = load ptr, ptr %0, align 8, !tbaa !3
  br label %40

40:                                               ; preds = %.lr.ph, %31, %Dch_ObjIsConst1Cand.exit
  %41 = phi ptr [ %15, %.lr.ph ], [ %.pre, %31 ], [ %15, %Dch_ObjIsConst1Cand.exit ]
  %indvars.iv.next = add nuw nsw i64 %indvars.iv, 1
  %42 = getelementptr inbounds nuw i8, ptr %41, i64 32
  %43 = load ptr, ptr %42, align 8, !tbaa !14
  %44 = getelementptr i8, ptr %43, i64 4
  %.val = load i32, ptr %44, align 4, !tbaa !24
  %45 = sext i32 %.val to i64
  %46 = icmp slt i64 %indvars.iv.next, %45
  br i1 %46, label %.lr.ph, label %.critedge, !llvm.loop !54

.critedge:                                        ; preds = %40, %9
  tail call void (i32, ptr, ...) @Abc_Print(i32 poison, ptr noundef nonnull @.str.2)
  %47 = load ptr, ptr %0, align 8, !tbaa !3
  %48 = getelementptr i8, ptr %47, i64 32
  %.val2833 = load ptr, ptr %48, align 8, !tbaa !14
  %49 = getelementptr i8, ptr %.val2833, i64 4
  %.val28.val34 = load i32, ptr %49, align 4, !tbaa !24
  %50 = icmp sgt i32 %.val28.val34, 0
  br i1 %50, label %.lr.ph36, label %._crit_edge

.lr.ph36:                                         ; preds = %.critedge
  %51 = getelementptr inbounds nuw i8, ptr %0, i64 8
  %52 = getelementptr inbounds nuw i8, ptr %0, i64 16
  br label %53

53:                                               ; preds = %.lr.ph36, %99
  %54 = phi ptr [ %47, %.lr.ph36 ], [ %100, %99 ]
  %indvars.iv38 = phi i64 [ 0, %.lr.ph36 ], [ %indvars.iv.next39, %99 ]
  %55 = load ptr, ptr %51, align 8, !tbaa !26
  %56 = getelementptr inbounds nuw ptr, ptr %55, i64 %indvars.iv38
  %57 = load ptr, ptr %56, align 8, !tbaa !40
  %58 = icmp eq ptr %57, null
  br i1 %58, label %99, label %59

59:                                               ; preds = %53
  %60 = load ptr, ptr %52, align 8, !tbaa !27
  %61 = getelementptr inbounds nuw i32, ptr %60, i64 %indvars.iv38
  %62 = load i32, ptr %61, align 4, !tbaa !39
  %63 = trunc nuw nsw i64 %indvars.iv38 to i32
  tail call void (i32, ptr, ...) @Abc_Print(i32 poison, ptr noundef nonnull @.str.5, i32 noundef %63, i32 noundef %62)
  %64 = load ptr, ptr %57, align 8, !tbaa !41
  tail call void (i32, ptr, ...) @Abc_Print(i32 poison, ptr noundef nonnull @.str)
  %65 = getelementptr inbounds nuw i8, ptr %64, i64 36
  %66 = load ptr, ptr %52, align 8, !tbaa !27
  %67 = load i32, ptr %65, align 4, !tbaa !38
  %68 = sext i32 %67 to i64
  %69 = getelementptr inbounds i32, ptr %66, i64 %68
  %70 = load i32, ptr %69, align 4, !tbaa !39
  %71 = icmp sgt i32 %70, 0
  br i1 %71, label %.lr.ph.i, label %Dch_ClassesPrintOne.exit

.lr.ph.i:                                         ; preds = %59, %91
  %72 = phi i32 [ %92, %91 ], [ %67, %59 ]
  %73 = phi ptr [ %93, %91 ], [ %66, %59 ]
  %indvars.iv.i = phi i64 [ %indvars.iv.next.i, %91 ], [ 0, %59 ]
  %74 = phi i64 [ %94, %91 ], [ %68, %59 ]
  %75 = load ptr, ptr %51, align 8, !tbaa !26
  %76 = getelementptr inbounds ptr, ptr %75, i64 %74
  %77 = load ptr, ptr %76, align 8, !tbaa !40
  %78 = getelementptr inbounds nuw ptr, ptr %77, i64 %indvars.iv.i
  %79 = load ptr, ptr %78, align 8, !tbaa !41
  %80 = icmp eq ptr %79, null
  br i1 %80, label %91, label %81

81:                                               ; preds = %.lr.ph.i
  %82 = getelementptr inbounds nuw i8, ptr %79, i64 36
  %83 = load i32, ptr %82, align 4, !tbaa !38
  %84 = getelementptr inbounds nuw i8, ptr %79, i64 24
  %85 = load i64, ptr %84, align 8
  %86 = lshr i64 %85, 32
  %87 = trunc nuw i64 %86 to i32
  %88 = and i32 %87, 16777215
  %89 = load ptr, ptr %0, align 8, !tbaa !3
  %90 = tail call i32 @Aig_SupportSize(ptr noundef %89, ptr noundef nonnull %79) #19
  tail call void (i32, ptr, ...) @Abc_Print(i32 poison, ptr noundef nonnull @.str.1, i32 noundef %83, i32 noundef %88, i32 noundef %90)
  %.pre.i = load ptr, ptr %52, align 8, !tbaa !27
  %.pre13.i = load i32, ptr %65, align 4, !tbaa !38
  br label %91

91:                                               ; preds = %81, %.lr.ph.i
  %92 = phi i32 [ %.pre13.i, %81 ], [ %72, %.lr.ph.i ]
  %93 = phi ptr [ %.pre.i, %81 ], [ %73, %.lr.ph.i ]
  %indvars.iv.next.i = add nuw nsw i64 %indvars.iv.i, 1
  %94 = sext i32 %92 to i64
  %95 = getelementptr inbounds i32, ptr %93, i64 %94
  %96 = load i32, ptr %95, align 4, !tbaa !39
  %97 = sext i32 %96 to i64
  %98 = icmp slt i64 %indvars.iv.next.i, %97
  br i1 %98, label %.lr.ph.i, label %Dch_ClassesPrintOne.exit, !llvm.loop !42

Dch_ClassesPrintOne.exit:                         ; preds = %91, %59
  tail call void (i32, ptr, ...) @Abc_Print(i32 poison, ptr noundef nonnull @.str.2)
  %.pre41 = load ptr, ptr %0, align 8, !tbaa !3
  br label %99

99:                                               ; preds = %Dch_ClassesPrintOne.exit, %53
  %100 = phi ptr [ %.pre41, %Dch_ClassesPrintOne.exit ], [ %54, %53 ]
  %indvars.iv.next39 = add nuw nsw i64 %indvars.iv38, 1
  %101 = getelementptr i8, ptr %100, i64 32
  %.val28 = load ptr, ptr %101, align 8, !tbaa !14
  %102 = getelementptr i8, ptr %.val28, i64 4
  %.val28.val = load i32, ptr %102, align 4, !tbaa !24
  %103 = sext i32 %.val28.val to i64
  %104 = icmp slt i64 %indvars.iv.next39, %103
  br i1 %104, label %53, label %._crit_edge, !llvm.loop !55

._crit_edge:                                      ; preds = %99, %.critedge
  tail call void (i32, ptr, ...) @Abc_Print(i32 poison, ptr noundef nonnull @.str.6)
  br label %105

105:                                              ; preds = %2, %._crit_edge
  ret void
}